; Function Attrs: mustprogress uwtable
define hidden void @_ZN2cv5utils7logging13LogTagManager9NameTable29internal_addOrLookupNamePartsERKSt6vectorINSt7__cxx1112basic_stringIcSt11char_traitsIcESaIcEEESaISA_EERS4_ImSaImEE(ptr noundef nonnull align 8 dereferenceable(272) %0, ptr noundef nonnull readonly align 8 captures(none) dereferenceable(24) %1, ptr noundef nonnull align 8 dereferenceable(24) %2) local_unnamed_addr #0 align 2 personality ptr @__gxx_personality_v0 {
  %4 = alloca i64, align 8
  %5 = getelementptr inbounds nuw i8, ptr %1, i64 8
  %6 = load ptr, ptr %5, align 8, !tbaa !82
  %7 = load ptr, ptr %1, align 8, !tbaa !81
  %8 = ptrtoint ptr %6 to i64
  %9 = ptrtoint ptr %7 to i64
  %10 = sub i64 %8, %9
  %11 = ashr exact i64 %10, 5
  call void @llvm.lifetime.start.p0(i64 8, ptr nonnull %4) #24
  store i64 -1, ptr %4, align 8, !tbaa !49
  %12 = getelementptr inbounds nuw i8, ptr %2, i64 8
  %13 = load ptr, ptr %12, align 8, !tbaa !144
  %14 = load ptr, ptr %2, align 8, !tbaa !80
  %15 = ptrtoint ptr %13 to i64
  %16 = ptrtoint ptr %14 to i64
  %17 = sub i64 %15, %16
  %18 = ashr exact i64 %17, 3
  %19 = icmp ugt i64 %11, %18
  br i1 %19, label %20, label %22

20:                                               ; preds = %3
  %21 = sub nuw nsw i64 %11, %18
  call void @_ZNSt6vectorImSaImEE14_M_fill_insertEN9__gnu_cxx17__normal_iteratorIPmS1_EEmRKm(ptr noundef nonnull align 8 dereferenceable(24) %2, ptr %13, i64 noundef %21, ptr noundef nonnull align 8 dereferenceable(8) %4)
  br label %_ZNSt6vectorImSaImEE6resizeEmRKm.exit

22:                                               ; preds = %3
  %23 = icmp ult i64 %11, %18
  br i1 %23, label %24, label %_ZNSt6vectorImSaImEE6resizeEmRKm.exit

24:                                               ; preds = %22
  %25 = getelementptr inbounds nuw i64, ptr %14, i64 %11
  %.not.i.i = icmp eq ptr %13, %25
  br i1 %.not.i.i, label %_ZNSt6vectorImSaImEE6resizeEmRKm.exit, label %26

26:                                               ; preds = %24
  store ptr %25, ptr %12, align 8, !tbaa !144
  br label %_ZNSt6vectorImSaImEE6resizeEmRKm.exit

_ZNSt6vectorImSaImEE6resizeEmRKm.exit:            ; preds = %20, %22, %24, %26
  call void @llvm.lifetime.end.p0(i64 8, ptr nonnull %4) #24
  %.not = icmp eq ptr %6, %7
  br i1 %.not, label %._crit_edge, label %.lr.ph.preheader

.lr.ph.preheader:                                 ; preds = %_ZNSt6vectorImSaImEE6resizeEmRKm.exit
  %umax = call i64 @llvm.umax.i64(i64 %11, i64 1)
  br label %.lr.ph

._crit_edge:                                      ; preds = %_ZNSt6vectorImSaImEE2atEm.exit, %_ZNSt6vectorImSaImEE6resizeEmRKm.exit
  ret void

.lr.ph:                                           ; preds = %.lr.ph.preheader, %_ZNSt6vectorImSaImEE2atEm.exit
  %.018 = phi i64 [ %44, %_ZNSt6vectorImSaImEE2atEm.exit ], [ 0, %.lr.ph.preheader ]
  %27 = load ptr, ptr %5, align 8, !tbaa !82
  %28 = load ptr, ptr %1, align 8, !tbaa !81
  %29 = ptrtoint ptr %27 to i64
  %30 = ptrtoint ptr %28 to i64
  %31 = sub i64 %29, %30
  %32 = ashr exact i64 %31, 5
  %.not.i.i12 = icmp ult i64 %.018, %32
  br i1 %.not.i.i12, label %_ZNKSt6vectorINSt7__cxx1112basic_stringIcSt11char_traitsIcESaIcEEESaIS5_EE2atEm.exit, label %33

33:                                               ; preds = %.lr.ph
  call void (ptr, ...) @_ZSt24__throw_out_of_range_fmtPKcz(ptr noundef nonnull @.str.14, i64 noundef %.018, i64 noundef %32) #25
  unreachable

_ZNKSt6vectorINSt7__cxx1112basic_stringIcSt11char_traitsIcESaIcEEESaIS5_EE2atEm.exit: ; preds = %.lr.ph
  %34 = getelementptr inbounds nuw %"class.std::__cxx11::basic_string", ptr %28, i64 %.018
  %35 = call noundef i64 @_ZN2cv5utils7logging13LogTagManager9NameTable28internal_addOrLookupNamePartERKNSt7__cxx1112basic_stringIcSt11char_traitsIcESaIcEEE(ptr noundef nonnull align 8 dereferenceable(272) %0, ptr noundef nonnull align 8 dereferenceable(32) %34)
  %36 = load ptr, ptr %12, align 8, !tbaa !144
  %37 = load ptr, ptr %2, align 8, !tbaa !80
  %38 = ptrtoint ptr %36 to i64
  %39 = ptrtoint ptr %37 to i64
  %40 = sub i64 %38, %39
  %41 = ashr exact i64 %40, 3
  %.not.i.i13 = icmp ult i64 %.018, %41
  br i1 %.not.i.i13, label %_ZNSt6vectorImSaImEE2atEm.exit, label %42

42:                                               ; preds = %_ZNKSt6vectorINSt7__cxx1112basic_stringIcSt11char_traitsIcESaIcEEESaIS5_EE2atEm.exit
  call void (ptr, ...) @_ZSt24__throw_out_of_range_fmtPKcz(ptr noundef nonnull @.str.14, i64 noundef %.018, i64 noundef %41) #25
  unreachable

_ZNSt6vectorImSaImEE2atEm.exit:                   ; preds = %_ZNKSt6vectorINSt7__cxx1112basic_stringIcSt11char_traitsIcESaIcEEESaIS5_EE2atEm.exit
  %43 = getelementptr inbounds nuw i64, ptr %37, i64 %.018
  store i64 %35, ptr %43, align 8, !tbaa !49
  %44 = add nuw i64 %.018, 1
  %exitcond.not = icmp eq i64 %44, %umax
  br i1 %exitcond.not, label %._crit_edge, label %.lr.ph, !llvm.loop !145
}